; Function Attrs: mustprogress uwtable
define void @_ZN5faiss11IndexFlat1D5resetEv(ptr noundef nonnull align 8 dereferenceable(128) %0) unnamed_addr #2 align 2 personality ptr @__gxx_personality_v0 {
  tail call void @_ZN5faiss14IndexFlatCodes5resetEv(ptr noundef nonnull align 8 dereferenceable(72) %0)
  %2 = getelementptr inbounds nuw i8, ptr %0, i64 104
  %3 = load ptr, ptr %2, align 8, !tbaa !77
  %4 = getelementptr inbounds nuw i8, ptr %0, i64 112
  %5 = load ptr, ptr %4, align 8, !tbaa !92
  %.not.i.i = icmp eq ptr %5, %3
  br i1 %.not.i.i, label %_ZNSt6vectorIlSaIlEE5clearEv.exit, label %6

6:                                                ; preds = %1
  store ptr %3, ptr %4, align 8, !tbaa !92
  br label %_ZNSt6vectorIlSaIlEE5clearEv.exit

_ZNSt6vectorIlSaIlEE5clearEv.exit:                ; preds = %1, %6
  ret void
}